(dp0
S'generic10_learningFull'
p1
(dp2
S'alpha_ATLAS_LUMI_2012'
p3
(dp4
S'muT__phi'
p5
cnumpy.core.multiarray
scalar
p6
(cnumpy
dtype
p7
(S'f8'
p8
I0
I1
tp9
Rp10
(I3
S'<'
p11
NNNI-1
I-1
I0
tp12
bS'?-\xd9\r\x0e\x96\x89\xbf'
p13
tp14
Rp15
sS'muT__hat'
p16
F1.4568038259884322
sS'muW__muW'
p17
g6
(g10
S'\xd5\x02\xc6\xf4l\xc8\xa2?'
p18
tp19
Rp20
sS'muT__muW'
p21
g6
(g10
S'=\xe6\xe5\xf4\xbewp\xbf'
p22
tp23
Rp24
sS'muT__muT'
p25
g6
(g10
S'\xe4$\xa7\x9a\xc9$\xa6?'
p26
tp27
Rp28
sS'muW__muT'
p29
g6
(g10
S'A\xb9\xb71H\nr?'
p30
tp31
Rp32
sS'muW__phi'
p33
g15
sS'muW__hat'
p34
F1.8521401404086548
ssS'alpha_QCDscale_Higgs_ggH2in'
p35
(dp36
S'muT__phi'
p37
g6
(g10
S'\xe3e\x05\xbc\\\xc9\x80\xbf'
p38
tp39
Rp40
sg16
F1.4568038259884322
sS'muW__muW'
p41
g6
(g10
S'y\x9f\x1a*m|L?'
p42
tp43
Rp44
sS'muT__muW'
p45
g6
(g10
S'\xc4\xc6\xbe\x05H\xc5d\xbf'
p46
tp47
Rp48
sS'muT__muT'
p49
g6
(g10
S'\x17\r\xf2\x10\xdc\x8b\x82?'
p50
tp51
Rp52
sS'muW__muT'
p53
g6
(g10
S'\x8b\xbde/\x02\xa2\xc0?'
p54
tp55
Rp56
sS'muW__phi'
p57
g40
sg34
F1.8521401404086548
ssS'constant'
p58
(dp59
g16
F1.4568038259884322
sg17
g6
(g10
S'\x19%R\x1c\x93\xe4C\xbf'
p60
tp61
Rp62
sg21
g6
(g10
S'\xc7V\x9eI\x1e=c\xbf'
p63
tp64
Rp65
sg25
g6
(g10
S'\x15\x0f\x06!v\xe2 \xbf'
p66
tp67
Rp68
sg29
g6
(g10
S'=\x1fOT\xec9R\xbf'
p69
tp70
Rp71
sg34
F1.8521401404086548
ssS'alpha_QCDscale_Higgs_ggH'
p72
(dp73
S'muT__phi'
p74
g6
(g10
S'2\x17\x1c\xf18\xc9\x9a\xbf'
p75
tp76
Rp77
sg16
F1.4568038259884322
sS'muW__muW'
p78
g6
(g10
S'u\x9e\xe3M\xe2\xc0x?'
p79
tp80
Rp81
sS'muT__muW'
p82
g6
(g10
S'\xd5\x87\x81\xc7\x93D$\xbf'
p83
tp84
Rp85
sS'muT__muT'
p86
g6
(g10
S'\x9bl\xdcX\xc4\xb8\xc3?'
p87
tp88
Rp89
sS'muW__muT'
p90
g6
(g10
S'2J\xf8\x0b\xd8\xfd\x8a?'
p91
tp92
Rp93
sS'muW__phi'
p94
g77
sg34
F1.8521401404086548
sssS'generic_fisherInfo'
p95
(dp96
S'alpha_ATLAS_LUMI_2012'
p97
(dp98
S'muT__phi'
p99
F0.0
sS'muW__muW'
p100
F0.03668667719307146
sS'muT__muW'
p101
F0.0
sS'muT__muT'
p102
F0.03600862379414941
sS'muW__muT'
p103
F0.0
sS'muW__phi'
p104
F0.0
ssS'alpha_QCDscale_Higgs_ggH2in'
p105
(dp106
S'muT__phi'
p107
F0.0
sS'muW__muW'
p108
F0.10094069496392594
sS'muT__muW'
p109
F0.0
sS'muT__muT'
p110
F-0.0020615963024835753
sS'muW__muT'
p111
F0.0
sS'muW__phi'
p112
F0.0
ssS'alpha_QCDscale_Higgs_ggH'
p113
(dp114
S'muT__phi'
p115
F0.0
sS'muW__muW'
p116
F0.0021787464496678894
sS'muT__muW'
p117
F0.0
sS'muT__muT'
p118
F0.13003537915063176
sS'muW__muT'
p119
F0.0
sS'muW__phi'
p120
F0.0
sssS'covarianceMatrix'
p121
(dp122
S'alpha_ATLAS_LUMI_2012'
p123
(dp124
S'muT'
p125
g6
(g10
S'\x01Rp\x8f\xc0\x80\xa2?'
p126
tp127
Rp128
sS'muW'
p129
g6
(g10
S'\x12Tp\x9c\x1f\xbc\xa2?'
p130
tp131
Rp132
ssS'alpha_QCDscale_Higgs_ggH2in'
p133
(dp134
g125
g6
(g10
S'%\x90\xb3\xd2\xda\xa4`\xbf'
p135
tp136
Rp137
sg129
g6
(g10
S'\xf5\xf0\xbcB1\xd1\xb9?'
p138
tp139
Rp140
ssS'alpha_QCDscale_Higgs_ggH'
p141
(dp142
g125
g6
(g10
S'\xccRS\n\xd4\xb2\xc0?'
p143
tp144
Rp145
sg129
g6
(g10
S'\xcc\xb1\xf33\r\x0c`?'
p146
tp147
Rp148
sssS'partialDerivatives'
p149
(dp150
S'alpha_ATLAS_LUMI_2012'
p151
(dp152
S'muT'
p153
F0.03597438140269586
sS'muW'
p154
F0.03639134314346069
ssS'alpha_QCDscale_Higgs_ggH2in'
p155
(dp156
g153
F-0.005600587614998717
sg154
F-3.511994222166261e-05
ssS'alpha_QCDscale_Higgs_ggH'
p157
(dp158
g153
F0.13039698964856375
sg154
F-3.511890676556487e-05
sssS'generic20_learningFull'
p159
(dp160
S'alpha_ATLAS_LUMI_2012'
p161
(dp162
S'muT__muW__down'
p163
g6
(g10
S'\xf1\x0b(z=\xbdi\xbf'
p164
tp165
Rp166
sS'muT__muT__down'
p167
g6
(g10
S'\xddA\x80O&\xd4\xa7?'
p168
tp169
Rp170
sS'muW__muT__down'
p171
g6
(g10
S'\x96\x9b\x88\xb3\x94!\x7f?'
p172
tp173
Rp174
sS'muW__muW__up'
p175
g6
(g10
S'\x1e\xcf(}\x06_\xa0?'
p176
tp177
Rp178
sS'muT__muT__up'
p179
g6
(g10
S'C\x88\xaam\x9c\xdf\xa1?'
p180
tp181
Rp182
sS'muT__phi__up'
p183
g6
(g10
S'7#\xd0\xacnH|\xbf'
p184
tp185
Rp186
sS'muW__phi__up'
p187
g186
sS'muW__muW__down'
p188
g6
(g10
S'p$\x85\x06Du\x9e?'
p189
tp190
Rp191
sg34
F1.8521401404086548
sg16
F1.4568038259884322
sS'muT__muW__up'
p192
g6
(g10
S'\xb6`k\x10\xba\x19s\xbf'
p193
tp194
Rp195
sS'muT__phi__down'
p196
g6
(g10
S'Z\xd8\x1d\xbeQ\xd2\x86\xbf'
p197
tp198
Rp199
sS'muW__phi__down'
p200
g199
sS'muW__muT__up'
p201
g6
(g10
S'\x1e.\xc7\x98>\xb2i\xbf'
p202
tp203
Rp204
ssS'alpha_QCDscale_Higgs_ggH2in'
p205
(dp206
S'muT__muW__down'
p207
g6
(g10
S'\x7f\x83\x1b*W\xe4c\xbf'
p208
tp209
Rp210
sS'muT__muT__down'
p211
g6
(g10
S'(\xc5\x84\x9a\xefF\x7f?'
p212
tp213
Rp214
sS'muW__muT__down'
p215
g6
(g10
S'0\xbf(+R\xac\xc1?'
p216
tp217
Rp218
sS'muW__muW__up'
p219
g6
(g10
S'\x07\x7f\xd1\x88Z.`\xbf'
p220
tp221
Rp222
sS'muT__muT__up'
p223
g6
(g10
S'\xcd\x9fh\x8e\x8a^\x7f?'
p224
tp225
Rp226
sS'muT__phi__up'
p227
g6
(g10
S'<\x02\xb2\x9aK\xbbp\xbf'
p228
tp229
Rp230
sS'muW__phi__up'
p231
g230
sS'muW__muW__down'
p232
g6
(g10
S'\xb0\xfd9N\x99#h\xbf'
p233
tp234
Rp235
sg34
F1.8521401404086548
sg16
F1.4568038259884322
sS'muT__muW__up'
p236
g6
(g10
S'\xfa\xe0Td\xba\xd5d\xbf'
p237
tp238
Rp239
sS'muT__phi__down'
p240
g6
(g10
S'\xa2\xdeM5Z0N?'
p241
tp242
Rp243
sS'muW__phi__down'
p244
g243
sS'muW__muT__up'
p245
g6
(g10
S'\xbctN\x7f\x1e<\xc0?'
p246
tp247
Rp248
ssg58
(dp249
S'muT__muW__down'
p250
g6
(g10
S'vIc\xd0T\xea\\\xbf'
p251
tp252
Rp253
sS'muT__muT__down'
p254
g6
(g10
S'\xc0\x91\x13\xcf\xd0^@\xbf'
p255
tp256
Rp257
sS'muW__muT__down'
p258
g6
(g10
S'\xd8\x7f\x9d\x81>\xe5)\xbf'
p259
tp260
Rp261
sS'muW__muW__up'
p262
g6
(g10
S'\x8b\xce<\xad\xe5\xa7`\xbf'
p263
tp264
Rp265
sS'muT__muT__up'
p266
g6
(g10
S'`\x8d?\xaf,uL?'
p267
tp268
Rp269
sS'muW__muW__down'
p270
g6
(g10
S'\xdb\x7f\xb2g\xbe\xcbN\xbf'
p271
tp272
Rp273
sg34
F1.8521401404086548
sg16
F1.4568038259884322
sS'muT__muW__up'
p274
g6
(g10
S'\xdcO!\x13\x8f\xbdh\xbf'
p275
tp276
Rp277
sS'muW__muT__up'
p278
g6
(g10
S'\x1d\xcbU<Y]S?'
p279
tp280
Rp281
ssS'alpha_QCDscale_Higgs_ggH'
p282
(dp283
S'muT__muW__down'
p284
g6
(g10
S'\xa2\x02\xd1\xdb\x8c$w\xbf'
p285
tp286
Rp287
sS'muT__muT__down'
p288
g6
(g10
S'oY\xc6\x8b\xe1\xc7\xc3?'
p289
tp290
Rp291
sS'muW__muT__down'
p292
g6
(g10
S'k\x16\xd2\x9e_\xc4\x8e?'
p293
tp294
Rp295
sS'muW__muW__up'
p296
g6
(g10
S'/\x88\xc1\xa2O\xf9|?'
p297
tp298
Rp299
sS'muT__muT__up'
p300
g6
(g10
S'\x83\x9a\xacxF\xd1\xc1?'
p301
tp302
Rp303
sS'muT__phi__up'
p304
g6
(g10
S'\x8c\xdb\xad\x06\xd6`\x8a\xbf'
p305
tp306
Rp307
sS'muW__phi__up'
p308
g307
sS'muW__muW__down'
p309
g6
(g10
S'\xd6\xd4;,\x85:/\xbf'
p310
tp311
Rp312
sg34
F1.8521401404086548
sg16
F1.4568038259884322
sS'muT__muW__up'
p313
g6
(g10
S'\xe9\x9e\xa6\xfc\xb1\xfak?'
p314
tp315
Rp316
sS'muT__phi__down'
p317
g6
(g10
S'\x14\xb0\x8b\x12\xd1\x88\x93\xbf'
p318
tp319
Rp320
sS'muW__phi__down'
p321
g320
sS'muW__muT__up'
p322
g6
(g10
S'\x93%\xb2\x1d8\x11v?'
p323
tp324
Rp325
sssS'generic_M4'
p326
(dp327
S'alpha_ATLAS_LUMI_2012'
p328
(dp329
S'muT__phi'
p330
F0.0
sS'muW__muW'
p331
F0.03668667719307146
sS'muT__muW'
p332
F0.0
sS'muT__muT'
p333
F0.03600862379414941
sS'muW__muT'
p334
F0.0
sS'muW__phi'
p335
F0.0
ssS'alpha_QCDscale_Higgs_ggH2in'
p336
(dp337
S'muT__phi'
p338
F-0.0020615963024835753
sS'muW__muW'
p339
I0
sS'muT__muW'
p340
F0.0
sS'muT__muT'
p341
I0
sS'muW__muT'
p342
F0.0
sS'muW__phi'
p343
F0.10094069496392594
ssS'alpha_QCDscale_Higgs_ggH'
p344
(dp345
S'muT__phi'
p346
F0.0
sS'muW__muW'
p347
F0.0021787464496678894
sS'muT__muW'
p348
F0.0
sS'muT__muT'
p349
F0.13003537915063176
sS'muW__muT'
p350
F0.0
sS'muW__phi'
p351
F0.0
sssS'generic_M5'
p352
(dp353
S'alpha_ATLAS_LUMI_2012'
p354
(dp355
S'muT__phi'
p356
F0.0
sS'muW__muW'
p357
F0.03668667719307146
sS'muT__muW'
p358
F0.0
sS'muT__muT'
p359
F0.03600862379414941
sS'muW__muT'
p360
F0.0
sS'muW__phi'
p361
F0.0
ssS'alpha_QCDscale_Higgs_ggH2in'
p362
(dp363
S'muT__phi'
p364
F0.0
sS'muW__muW'
p365
I0
sS'muT__muW'
p366
F-0.0016457417576504292
sS'muT__muT'
p367
I0
sS'muW__muT'
p368
F0.1264469121843564
sS'muW__phi'
p369
F0.0
ssS'alpha_QCDscale_Higgs_ggH'
p370
(dp371
S'muT__phi'
p372
F0.0
sS'muW__muW'
p373
F0.0021787464496678894
sS'muT__muW'
p374
F0.0
sS'muT__muT'
p375
F0.13003537915063176
sS'muW__muT'
p376
F0.0
sS'muW__phi'
p377
F0.0
sssS'fisherInfo'
p378
(dp379
S'alpha_ATLAS_LUMI_2012'
p380
(dp381
S'muT'
p382
F0.03600862379414941
sS'muW'
p383
F0.03668667719307146
ssS'alpha_QCDscale_Higgs_ggH2in'
p384
(dp385
g382
F-0.0020615963024835753
sg383
F0.10094069496392594
ssS'alpha_QCDscale_Higgs_ggH'
p386
(dp387
g382
F0.13003537915063176
sg383
F0.0021787464496678894
sss.