(dp0
S'generic10_learningFull'
p1
(dp2
S'alpha_ATLAS_LUMI_2012'
p3
(dp4
S'muT__phi'
p5
cnumpy.core.multiarray
scalar
p6
(cnumpy
dtype
p7
(S'f8'
p8
I0
I1
tp9
Rp10
(I3
S'<'
p11
NNNI-1
I-1
I0
tp12
bS'\xa6\xb4\xe2\xa9v\x83*\xbf'
p13
tp14
Rp15
sS'muT__hat'
p16
F1.4940193072289683
sS'muW__muW'
p17
g6
(g10
S'\xdb\xbf\xc2 \xee|\x8d?'
p18
tp19
Rp20
sS'muT__muW'
p21
g6
(g10
S'\x03"\x8b\xb0\x9ehX\xbf'
p22
tp23
Rp24
sS'muT__muT'
p25
g6
(g10
S'\\\x07\x94\xb8g.\xa7?'
p26
tp27
Rp28
sS'muW__muT'
p29
g6
(g10
S'\x08~"N\x15ea?'
p30
tp31
Rp32
sS'muW__phi'
p33
g15
sS'muW__hat'
p34
F0.7620640100233409
ssS'alpha_QCDscale_Higgs_ggH2in'
p35
(dp36
S'muT__phi'
p37
g6
(g10
S'\xb3@\xba\xc6$/q?'
p38
tp39
Rp40
sg16
F1.4940193072289683
sS'muW__muW'
p41
g6
(g10
S'\xf4e\xc1c83\x8d?'
p42
tp43
Rp44
sS'muT__muW'
p45
g6
(g10
S'\xdf&q\xe2\x1aI\x95\xbf'
p46
tp47
Rp48
sS'muT__muT'
p49
g6
(g10
S'\n\x11\xb6T\xfaJ\x90\xbf'
p50
tp51
Rp52
sS'muW__muT'
p53
g6
(g10
S'\xf1\xb7\xca\xef\xbf\xc7\xc3?'
p54
tp55
Rp56
sS'muW__phi'
p57
g40
sg34
F0.7620640100233409
ssS'constant'
p58
(dp59
g16
F1.4940193072289683
sg17
g6
(g10
S'\xd9X@=s3=\xbf'
p60
tp61
Rp62
sg21
g6
(g10
S'\xe7q\xf7\xd3]\xb4Q\xbf'
p63
tp64
Rp65
sg25
g6
(g10
S'\x12\xaeO\x81\xada2?'
p66
tp67
Rp68
sg29
g6
(g10
S'\xe3\x9a\xd9\xf3\x8f\xae%\xbf'
p69
tp70
Rp71
sg34
F0.7620640100233409
ssS'alpha_QCDscale_Higgs_ggH'
p72
(dp73
S'muT__phi'
p74
g6
(g10
S'\xb5\xe6b{\xb8,\x86\xbf'
p75
tp76
Rp77
sg16
F1.4940193072289683
sS'muW__muW'
p78
g6
(g10
S'8\x91\n\xa2\xe1\xce\x90?'
p79
tp80
Rp81
sS'muT__muW'
p82
g6
(g10
S'\x05Pg\x96\xc7\xbf(?'
p83
tp84
Rp85
sS'muT__muT'
p86
g6
(g10
S'\xac\xd5\x8e-2\xc6\xc1?'
p87
tp88
Rp89
sS'muW__muT'
p90
g6
(g10
S'0\xf7[g\x93l\x91\xbf'
p91
tp92
Rp93
sS'muW__phi'
p94
g77
sg34
F0.7620640100233409
sssS'generic_fisherInfo'
p95
(dp96
S'alpha_ATLAS_LUMI_2012'
p97
(dp98
S'muT__phi'
p99
F0.0
sS'muW__muW'
p100
F0.03492561084072803
sS'muT__muW'
p101
F0.0
sS'muT__muT'
p102
F0.0361264723171535
sS'muW__muT'
p103
F0.0
sS'muW__phi'
p104
F0.0
ssS'alpha_QCDscale_Higgs_ggH2in'
p105
(dp106
S'muT__phi'
p107
F0.0
sS'muW__muW'
p108
F0.32417562593795246
sS'muT__muW'
p109
F0.0
sS'muT__muT'
p110
F-0.01931636358701262
sS'muW__muT'
p111
F0.0
sS'muW__phi'
p112
F0.0
ssS'alpha_QCDscale_Higgs_ggH'
p113
(dp114
S'muT__phi'
p115
F0.0
sS'muW__muW'
p116
F-0.0036130708577329558
sS'muT__muW'
p117
F0.0
sS'muT__muT'
p118
F0.1304385963628895
sS'muW__muT'
p119
F0.0
sS'muW__phi'
p120
F0.0
sssS'covarianceMatrix'
p121
(dp122
S'alpha_ATLAS_LUMI_2012'
p123
(dp124
S'muT'
p125
g6
(g10
S'\xc2s\x8c\xbd\xa4w\xa2?'
p126
tp127
Rp128
sS'muW'
p129
g6
(g10
S'\x97Z~\x86_\xef\xa1?'
p130
tp131
Rp132
ssS'alpha_QCDscale_Higgs_ggH2in'
p133
(dp134
g125
g6
(g10
S'\x03\xc0\xed\xe6\xea\xc8\x93\xbf'
p135
tp136
Rp137
sg129
g6
(g10
S'FV6s\x87\xc1\xd4?'
p138
tp139
Rp140
ssS'alpha_QCDscale_Higgs_ggH'
p141
(dp142
g125
g6
(g10
S'\xf6d\xd3\xd3\xdb\xab\xc0?'
p143
tp144
Rp145
sg129
g6
(g10
S'\x89j@\xa3\x96\x1fk\xbf'
p146
tp147
Rp148
sssS'partialDerivatives'
p149
(dp150
S'alpha_ATLAS_LUMI_2012'
p151
(dp152
S'muT'
p153
F0.03643288131603559
sS'muW'
p154
F0.03661930045522114
ssS'alpha_QCDscale_Higgs_ggH2in'
p155
(dp156
g153
F0.006743598205303531
sg154
F-5.367590188169326e-06
ssS'alpha_QCDscale_Higgs_ggH'
p157
(dp158
g153
F0.1353380322305319
sg154
F-5.367517135974798e-06
sssS'generic20_learningFull'
p159
(dp160
S'alpha_ATLAS_LUMI_2012'
p161
(dp162
S'muT__muW__down'
p163
g6
(g10
S']\x89\xaf\xb1:\x82\x82?'
p164
tp165
Rp166
sS'muT__muT__down'
p167
g6
(g10
S'O\xa0s\xb7\xdb\xff\xa7?'
p168
tp169
Rp170
sS'muW__muT__down'
p171
g6
(g10
S'y\xde\xc0\x18\xd3\x87\x18\xbf'
p172
tp173
Rp174
sS'muW__muW__up'
p175
g6
(g10
S'\x999\x8c+\xa8\x82\xa1?'
p176
tp177
Rp178
sS'muT__muT__up'
p179
g6
(g10
S'\xcc\x9d\xc7\xbdF\x1d\xa1?'
p180
tp181
Rp182
sS'muT__phi__up'
p183
g6
(g10
S'\x1d!\x10Ts\x85#?'
p184
tp185
Rp186
sS'muW__phi__up'
p187
g186
sS'muW__muW__down'
p188
g6
(g10
S'\xf5\x05\xeb]\xc2:\xa0?'
p189
tp190
Rp191
sg34
F0.7620640100233409
sg16
F1.4940193072289683
sS'muT__muW__up'
p192
g6
(g10
S'\x10P\xe1B\xb4\xc3_?'
p193
tp194
Rp195
sS'muT__phi__down'
p196
g6
(g10
S'kl\xf8_\x01\x0eo\xbf'
p197
tp198
Rp199
sS'muW__phi__down'
p200
g199
sS'muW__muT__up'
p201
g6
(g10
S'D"\xa0\x9c\xc8=o\xbf'
p202
tp203
Rp204
ssS'alpha_QCDscale_Higgs_ggH2in'
p205
(dp206
S'muT__muW__down'
p207
g6
(g10
S'5+*^9Q\x9c\xbf'
p208
tp209
Rp210
sS'muT__muT__down'
p211
g6
(g10
S'\x91\xa4\xb85\x9ab\x90\xbf'
p212
tp213
Rp214
sS'muW__muT__down'
p215
g6
(g10
S'\x1bW\xd1 \x1f\xd4\xc4?'
p216
tp217
Rp218
sS'muW__muW__up'
p219
g6
(g10
S'\xab\xc9\x8c\x16r\xd9\x8e?'
p220
tp221
Rp222
sS'muT__muT__up'
p223
g6
(g10
S'\x88Z]\xae@^\x92\xbf'
p224
tp225
Rp226
sS'muT__phi__up'
p227
g6
(g10
S'\xc8\xc1\xc2h\x01;\x83\xbf'
p228
tp229
Rp230
sS'muW__phi__up'
p231
g230
sS'muW__muW__down'
p232
g6
(g10
S'\xa9j\xab1\xe2\xef\x81\xbf'
p233
tp234
Rp235
sg34
F0.7620640100233409
sg16
F1.4940193072289683
sS'muT__muW__up'
p236
g6
(g10
S'[\xc9\x8dmY\xf4\x98\xbf'
p237
tp238
Rp239
sS'muT__phi__down'
p240
g6
(g10
S'\xdf<\xbd\xb5c\x9e7\xbf'
p241
tp242
Rp243
sS'muW__phi__down'
p244
g243
sS'muW__muT__up'
p245
g6
(g10
S'bY0\xb9=\x12\xc4?'
p246
tp247
Rp248
ssg58
(dp249
S'muT__muW__down'
p250
g6
(g10
S'T`cF\x9e\xf0P\xbf'
p251
tp252
Rp253
sS'muT__muT__down'
p254
g6
(g10
S'L\xec\x12\x03\xeb\xbd$\xbf'
p255
tp256
Rp257
sS'muW__muT__down'
p258
g6
(g10
S'\xb1\xd0`#F\xc1\x1f\xbf'
p259
tp260
Rp261
sS'muW__muW__up'
p262
g6
(g10
S':\xdf\x9d\x99\rjR\xbf'
p263
tp264
Rp265
sS'muT__muT__up'
p266
g6
(g10
S'E\x8a\x8a!\xbf\x87V?'
p267
tp268
Rp269
sS'muW__muW__down'
p270
g6
(g10
S'\xbek\xdd\xcb\xeddM\xbf'
p271
tp272
Rp273
sg34
F0.7620640100233409
sg16
F1.4940193072289683
sS'muT__muW__up'
p274
g6
(g10
S'\xbb\xfcwU\x83\x93b\xbf'
p275
tp276
Rp277
sS'muW__muT__up'
p278
g6
(g10
S'\x03;t"\x9453?'
p279
tp280
Rp281
ssS'alpha_QCDscale_Higgs_ggH'
p282
(dp283
S'muT__muW__down'
p284
g6
(g10
S'\xa6\xa5\x18(D\xa4p\xbf'
p285
tp286
Rp287
sS'muT__muT__down'
p288
g6
(g10
S'\xac\x0e\x15\xcc\xeaA\xc2?'
p289
tp290
Rp291
sS'muW__muT__down'
p292
g6
(g10
S'\xe0=\x8f\x9e7ga\xbf'
p293
tp294
Rp295
sS'muW__muW__up'
p296
g6
(g10
S'\x8a\x16\xb8\x08\x92\xc1S?'
p297
tp298
Rp299
sS'muT__muT__up'
p300
g6
(g10
S'\xd9x\r)\x99\xa6\xc0?'
p301
tp302
Rp303
sS'muT__phi__up'
p304
g6
(g10
S'<:Tg{,T?'
p305
tp306
Rp307
sS'muW__phi__up'
p308
g307
sS'muW__muW__down'
p309
g6
(g10
S'\xc5\x1c\xbe\xaa"r\x92?'
p310
tp311
Rp312
sg34
F0.7620640100233409
sg16
F1.4940193072289683
sS'muT__muW__up'
p313
g6
(g10
S'j\x98\x16\x06l\xa6\xfb\xbe'
p314
tp315
Rp316
sS'muT__phi__down'
p317
g6
(g10
S'\x01\xb8\xac\x05\xe1\xc2\x96\xbf'
p318
tp319
Rp320
sS'muW__phi__down'
p321
g320
sS'muW__muT__up'
p322
g6
(g10
S'\x17\xa9\xb1\xbet\xea\x91\xbf'
p323
tp324
Rp325
sssS'generic_M4'
p326
(dp327
S'alpha_ATLAS_LUMI_2012'
p328
(dp329
S'muT__phi'
p330
F0.0
sS'muW__muW'
p331
F0.03492561084072803
sS'muT__muW'
p332
F0.0
sS'muT__muT'
p333
F0.0361264723171535
sS'muW__muT'
p334
F0.0
sS'muW__phi'
p335
F0.0
ssS'alpha_QCDscale_Higgs_ggH2in'
p336
(dp337
S'muT__phi'
p338
F-0.01931636358701262
sS'muW__muW'
p339
I0
sS'muT__muW'
p340
F0.0
sS'muT__muT'
p341
I0
sS'muW__muT'
p342
F0.0
sS'muW__phi'
p343
F0.32417562593795246
ssS'alpha_QCDscale_Higgs_ggH'
p344
(dp345
S'muT__phi'
p346
F0.0
sS'muW__muW'
p347
F-0.0036130708577329558
sS'muT__muW'
p348
F0.0
sS'muT__muT'
p349
F0.1304385963628895
sS'muW__muT'
p350
F0.0
sS'muW__phi'
p351
F0.0
sssS'generic_M5'
p352
(dp353
S'alpha_ATLAS_LUMI_2012'
p354
(dp355
S'muT__phi'
p356
F0.0
sS'muW__muW'
p357
F0.03492561084072803
sS'muT__muW'
p358
F0.0
sS'muT__muT'
p359
F0.0361264723171535
sS'muW__muT'
p360
F0.0
sS'muW__phi'
p361
F0.0
ssS'alpha_QCDscale_Higgs_ggH2in'
p362
(dp363
S'muT__phi'
p364
F0.0
sS'muW__muW'
p365
I0
sS'muT__muW'
p366
F-0.039889534107888765
sS'muT__muT'
p367
I0
sS'muW__muT'
p368
F0.1569808822466669
sS'muW__phi'
p369
F0.0
ssS'alpha_QCDscale_Higgs_ggH'
p370
(dp371
S'muT__phi'
p372
F0.0
sS'muW__muW'
p373
F-0.0036130708577329558
sS'muT__muW'
p374
F0.0
sS'muT__muT'
p375
F0.1304385963628895
sS'muW__muT'
p376
F0.0
sS'muW__phi'
p377
F0.0
sssS'fisherInfo'
p378
(dp379
S'alpha_ATLAS_LUMI_2012'
p380
(dp381
S'muT'
p382
F0.0361264723171535
sS'muW'
p383
F0.03492561084072803
ssS'alpha_QCDscale_Higgs_ggH2in'
p384
(dp385
g382
F-0.01931636358701262
sg383
F0.32417562593795246
ssS'alpha_QCDscale_Higgs_ggH'
p386
(dp387
g382
F0.1304385963628895
sg383
F-0.0036130708577329558
sss.