(dp0
S'generic10_learningFull'
p1
(dp2
S'alpha_ATLAS_LUMI_2012'
p3
(dp4
S'muT__phi'
p5
cnumpy.core.multiarray
scalar
p6
(cnumpy
dtype
p7
(S'f8'
p8
I0
I1
tp9
Rp10
(I3
S'<'
p11
NNNI-1
I-1
I0
tp12
bS'\xb4\x0fJH\xf8?D\xbf'
p13
tp14
Rp15
sS'muT__hat'
p16
F0.8162266735706867
sS'muW__muW'
p17
g6
(g10
S'\xe0\xf6b\xae\t\x15\xa3?'
p18
tp19
Rp20
sS'muT__muW'
p21
g6
(g10
S'\xb5b\xf4\xade`S?'
p22
tp23
Rp24
sS'muT__muT'
p25
g6
(g10
S'\x91m\x00w\xf13\xa3?'
p26
tp27
Rp28
sS'muW__muT'
p29
g6
(g10
S'\xa5G\x86\x9e\xb3\x8cI?'
p30
tp31
Rp32
sS'muW__phi'
p33
g15
sS'muW__hat'
p34
F1.5863375681127545
ssS'alpha_QCDscale_Higgs_ggH2in'
p35
(dp36
S'muT__phi'
p37
g6
(g10
S'\xa8\x9c\xfbv\xa5(J?'
p38
tp39
Rp40
sg16
F0.8162266735706867
sS'muW__muW'
p41
g6
(g10
S'\xa2\x9d\x0cg\xdb\xc8\x88\xbf'
p42
tp43
Rp44
sS'muT__muW'
p45
g6
(g10
S'\xaf\x88&\x98\xa7fB\xbf'
p46
tp47
Rp48
sS'muT__muT'
p49
g6
(g10
S'.V\xbe\x06\xd4\xf9\xa2\xbf'
p50
tp51
Rp52
sS'muW__muT'
p53
g6
(g10
S'\x89\x17\xad\xeb[k\xd4>'
p54
tp55
Rp56
sS'muW__phi'
p57
g40
sg34
F1.5863375681127545
ssS'constant'
p58
(dp59
g16
F0.8162266735706867
sg17
g6
(g10
S'\x0b\xd29\xbb\xe3Zl\xbf'
p60
tp61
Rp62
sg21
g6
(g10
S'\xe1\xe2\xb6\x90a\xbb&?'
p63
tp64
Rp65
sg25
g6
(g10
S'\xb3S\r\xb0\xd6\xdd?\xbf'
p66
tp67
Rp68
sg29
g6
(g10
S'\xf3&\x08\xb3\xe8zz?'
p69
tp70
Rp71
sg34
F1.5863375681127545
ssS'alpha_QCDscale_Higgs_ggH'
p72
(dp73
S'muT__phi'
p74
g6
(g10
S'\x19\xd5B\x95l\x14q\xbf'
p75
tp76
Rp77
sg16
F0.8162266735706867
sS'muW__muW'
p78
g6
(g10
S'A\xf6\x8f\\\xd4\xbaP\xbf'
p79
tp80
Rp81
sS'muT__muW'
p82
g6
(g10
S'_#\xb9\xd8\xd4\\+?'
p83
tp84
Rp85
sS'muT__muT'
p86
g6
(g10
S'\xf7\xcd\x81\xe2\x80@\xc1?'
p87
tp88
Rp89
sS'muW__muT'
p90
g6
(g10
S'\x96}o\xda\xc2\xf7L\xbf'
p91
tp92
Rp93
sS'muW__phi'
p94
g77
sg34
F1.5863375681127545
sssS'generic_fisherInfo'
p95
(dp96
S'alpha_ATLAS_LUMI_2012'
p97
(dp98
S'muT__phi'
p99
F0.0
sS'muW__muW'
p100
F0.03566327454892652
sS'muT__muW'
p101
F0.0
sS'muT__muT'
p102
F0.03605267559484515
sS'muW__muT'
p103
F0.0
sS'muW__phi'
p104
F0.0
ssS'alpha_QCDscale_Higgs_ggH2in'
p105
(dp106
S'muT__phi'
p107
F0.0
sS'muW__muW'
p108
F-0.011614375774337235
sS'muT__muW'
p109
F0.0
sS'muT__muT'
p110
F-0.035608184769773336
sS'muW__muT'
p111
F0.0
sS'muW__phi'
p112
F0.0
ssS'alpha_QCDscale_Higgs_ggH'
p113
(dp114
S'muT__phi'
p115
F0.0
sS'muW__muW'
p116
F-0.0013069426662776977
sS'muT__muW'
p117
F0.0
sS'muT__muT'
p118
F0.1302659792324208
sS'muW__muT'
p119
F0.0
sS'muW__phi'
p120
F0.0
sssS'covarianceMatrix'
p121
(dp122
S'alpha_ATLAS_LUMI_2012'
p123
(dp124
S'muT'
p125
g6
(g10
S'\xc2\xac%\xe6ws\xa2?'
p126
tp127
Rp128
sS'muW'
p129
g6
(g10
S'\xc9\xf7\x9c\xb6\x97C\xa2?'
p130
tp131
Rp132
ssS'alpha_QCDscale_Higgs_ggH2in'
p133
(dp134
g125
g6
(g10
S'2\xec\xba\x0fQ9\xa2\xbf'
p135
tp136
Rp137
sg129
g6
(g10
S'\xe0u\x1c\xaei\xcc\x87\xbf'
p138
tp139
Rp140
ssS'alpha_QCDscale_Higgs_ggH'
p141
(dp142
g125
g6
(g10
S'\x90AC\xc7\xd6\xaa\xc0?'
p143
tp144
Rp145
sg129
g6
(g10
S'\x9d\x9f\\\xfb\t"U\xbf'
p146
tp147
Rp148
sssS'partialDerivatives'
p149
(dp150
S'alpha_ATLAS_LUMI_2012'
p151
(dp152
S'muT'
p153
F0.03613854143374428
sS'muW'
p154
F0.036449869696725035
ssS'alpha_QCDscale_Higgs_ggH2in'
p155
(dp156
g153
F-0.03715574911291144
sg154
F-6.369561205883517e-05
ssS'alpha_QCDscale_Higgs_ggH'
p157
(dp158
g153
F0.1311071671295051
sg154
F-6.369556159366425e-05
sssS'generic20_learningFull'
p159
(dp160
S'alpha_ATLAS_LUMI_2012'
p161
(dp162
S'muT__muW__down'
p163
g6
(g10
S'^\xd8>\x15vxn?'
p164
tp165
Rp166
sS'muT__muT__down'
p167
g6
(g10
S'\xc4v%\xda`Q\xa4?'
p168
tp169
Rp170
sS'muW__muT__down'
p171
g6
(g10
S'\xca3\xae\x9c\x1b\xfaj?'
p172
tp173
Rp174
sS'muW__muW__up'
p175
g6
(g10
S'\xac\x95\xc1:\x1c\xb8\xa2?'
p176
tp177
Rp178
sS'muT__muT__up'
p179
g6
(g10
S'\x05M\xcc\xed\xeb\xfb\xa1?'
p180
tp181
Rp182
sS'muT__phi__up'
p183
g6
(g10
S'\x84\xab\r0\xf7\xbdY?'
p184
tp185
Rp186
sS'muW__phi__up'
p187
g186
sS'muW__muW__down'
p188
g6
(g10
S'+\x8e\xbfE[\x9e\xa2?'
p189
tp190
Rp191
sg34
F1.5863375681127545
sg16
F0.8162266735706867
sS'muT__muW__up'
p192
g6
(g10
S'\xabJ\xb0q\x96\xc21\xbf'
p193
tp194
Rp195
sS'muT__phi__down'
p196
g6
(g10
S'\xcb\x9a.`z*i\xbf'
p197
tp198
Rp199
sS'muW__phi__down'
p200
g199
sS'muW__muT__up'
p201
g6
(g10
S'e\xd6S\xe46\xf7H\xbf'
p202
tp203
Rp204
ssS'alpha_QCDscale_Higgs_ggH2in'
p205
(dp206
S'muT__muW__down'
p207
g6
(g10
S'\x18\x1d\xd5~\x06\xfdR\xbf'
p208
tp209
Rp210
sS'muT__muT__down'
p211
g6
(g10
S'w\xac\xf6ct\xa2\xa2\xbf'
p212
tp213
Rp214
sS'muW__muT__down'
p215
g6
(g10
S'\xf5/\xb6\x8a\xbe|W?'
p216
tp217
Rp218
sS'muW__muW__up'
p219
g6
(g10
S'\x18\x8b\xd8\x04\xabG\x8b\xbf'
p220
tp221
Rp222
sS'muT__muT__up'
p223
g6
(g10
S'\xcb\x9f\x0f\xf2n]\xa3\xbf'
p224
tp225
Rp226
sS'muT__phi__up'
p227
g6
(g10
S'\xac\x9b\xfd\xcdG\xf2O?'
p228
tp229
Rp230
sS'muW__phi__up'
p231
g230
sS'muW__muW__down'
p232
g6
(g10
S'5\x132\xf5\xa4\xeb\x84\xbf'
p233
tp234
Rp235
sg34
F1.5863375681127545
sg16
F0.8162266735706867
sS'muT__muW__up'
p236
g6
(g10
S",E\xbe\x15\xdc\xc5'\xbf"
p237
tp238
Rp239
sS'muT__phi__down'
p240
g6
(g10
S'hv\x90\x86\x97*]?'
p241
tp242
Rp243
sS'muW__phi__down'
p244
g243
sS'muW__muT__up'
p245
g6
(g10
S"\xe0' \xa9:\xd6`\xbf"
p246
tp247
Rp248
ssg58
(dp249
S'muT__muW__down'
p250
g6
(g10
S'\xb6\x16k\x1bv\xd6:?'
p251
tp252
Rp253
sS'muT__muT__down'
p254
g6
(g10
S'3\x9b\x9d,\x9c}Q\xbf'
p255
tp256
Rp257
sS'muW__muT__down'
p258
g6
(g10
S'QS)!\xf6gy?'
p259
tp260
Rp261
sS'muW__muW__up'
p262
g6
(g10
S'\x8b\xad\xbb@7Sj\xbf'
p263
tp264
Rp265
sS'muT__muT__up'
p266
g6
(g10
S'J_\xc0\x1a_\xf83\xbf'
p267
tp268
Rp269
sS'muW__muW__down'
p270
g6
(g10
S'~\x91\x0c*\xd5El\xbf'
p271
tp272
Rp273
sg34
F1.5863375681127545
sg16
F0.8162266735706867
sS'muT__muW__up'
p274
g6
(g10
S'\xebdbM\xa6\x13\x18?'
p275
tp276
Rp277
sS'muW__muT__up'
p278
g6
(g10
S'>H\xf8\xd4\xfd\xfdy?'
p279
tp280
Rp281
ssS'alpha_QCDscale_Higgs_ggH'
p282
(dp283
S'muT__muW__down'
p284
g6
(g10
S'\xf8K\xb8\x1d\xcbh4\xbf'
p285
tp286
Rp287
sS'muT__muT__down'
p288
g6
(g10
S'\x0fu~\x06\xcd\x84\xc1?'
p289
tp290
Rp291
sS'muW__muT__down'
p292
g6
(g10
S'd\xc4b\x1d\tYi?'
p293
tp294
Rp295
sS'muW__muW__up'
p296
g6
(g10
S'\xebgJ\x8f\x84\xa77\xbf'
p297
tp298
Rp299
sS'muT__muT__up'
p300
g6
(g10
S'\x84\xc7M\xa7V(\xc1?'
p301
tp302
Rp303
sS'muT__phi__up'
p304
g6
(g10
S'\x05\xbf\xb7\x86E\x86n\xbf'
p305
tp306
Rp307
sS'muW__phi__up'
p308
g307
sS'muW__muW__down'
p309
g6
(g10
S'\xc8\x81\xec\xd8\xce\xbbd\xbf'
p310
tp311
Rp312
sg34
F1.5863375681127545
sg16
F0.8162266735706867
sS'muT__muW__up'
p313
g6
(g10
S'\xcf\xe8\xea\x9e\xba6A?'
p314
tp315
Rp316
sS'muT__phi__down'
p317
g6
(g10
S'\x83\xe3\x8f\x06\xc18}\xbf'
p318
tp319
Rp320
sS'muW__phi__down'
p321
g320
sS'muW__muT__up'
p322
g6
(g10
S'P\xdc\xdf\xb5\x94gj\xbf'
p323
tp324
Rp325
sssS'generic_M4'
p326
(dp327
S'alpha_ATLAS_LUMI_2012'
p328
(dp329
S'muT__phi'
p330
F0.0
sS'muW__muW'
p331
F0.03566327454892652
sS'muT__muW'
p332
F0.0
sS'muT__muT'
p333
F0.03605267559484515
sS'muW__muT'
p334
F0.0
sS'muW__phi'
p335
F0.0
ssS'alpha_QCDscale_Higgs_ggH2in'
p336
(dp337
S'muT__phi'
p338
F0.0
sS'muW__muW'
p339
F-0.011614375774337235
sS'muT__muW'
p340
F0.0
sS'muT__muT'
p341
F-0.035608184769773336
sS'muW__muT'
p342
F0.0
sS'muW__phi'
p343
F0.0
ssS'alpha_QCDscale_Higgs_ggH'
p344
(dp345
S'muT__phi'
p346
F0.0
sS'muW__muW'
p347
F-0.0013069426662776977
sS'muT__muW'
p348
F0.0
sS'muT__muT'
p349
F0.1302659792324208
sS'muW__muT'
p350
F0.0
sS'muW__phi'
p351
F0.0
sssS'generic_M5'
p352
(dp353
S'alpha_ATLAS_LUMI_2012'
p354
(dp355
S'muT__phi'
p356
F0.0
sS'muW__muW'
p357
F0.03566327454892652
sS'muT__muW'
p358
F0.0
sS'muT__muT'
p359
F0.03605267559484515
sS'muW__muT'
p360
F0.0
sS'muW__phi'
p361
F0.0
ssS'alpha_QCDscale_Higgs_ggH2in'
p362
(dp363
S'muT__phi'
p364
F0.0
sS'muW__muW'
p365
F-0.011614375774337235
sS'muT__muW'
p366
F0.0
sS'muT__muT'
p367
F-0.035608184769773336
sS'muW__muT'
p368
F0.0
sS'muW__phi'
p369
F0.0
ssS'alpha_QCDscale_Higgs_ggH'
p370
(dp371
S'muT__phi'
p372
F0.0
sS'muW__muW'
p373
F-0.0013069426662776977
sS'muT__muW'
p374
F0.0
sS'muT__muT'
p375
F0.1302659792324208
sS'muW__muT'
p376
F0.0
sS'muW__phi'
p377
F0.0
sssS'fisherInfo'
p378
(dp379
S'alpha_ATLAS_LUMI_2012'
p380
(dp381
S'muT'
p382
F0.03605267559484515
sS'muW'
p383
F0.03566327454892652
ssS'alpha_QCDscale_Higgs_ggH2in'
p384
(dp385
g382
F-0.035608184769773336
sg383
F-0.011614375774337235
ssS'alpha_QCDscale_Higgs_ggH'
p386
(dp387
g382
F0.1302659792324208
sg383
F-0.0013069426662776977
sss.